(lp0
(lp1
(S' '
p2
ccopy_reg
_reconstructor
p3
(c__main__
CharCount
p4
c__builtin__
dict
p5
(dp6
g2
I45
sS'.'
p7
I12
sS'1'
p8
I139
sS'0'
p9
I26
sS'3'
p10
I18
sS'2'
p11
I225
sS'5'
p12
I4
sS'4'
p13
I15
sS'7'
p14
I7
sS'6'
p15
I7
sS'9'
p16
I35
sS'8'
p17
I15
sS'_'
p18
I1
sS'a'
p19
I219
sS'c'
p20
I217
sS'b'
p21
I68
sS'e'
p22
I70
sS'd'
p23
I272
sS'g'
p24
I55
sS'f'
p25
I191
sS'i'
p26
I74
sS'h'
p27
I83
sS'k'
p28
I40
sS'j'
p29
I33
sS'm'
p30
I101
sS'l'
p31
I145
sS'o'
p32
I164
sS'n'
p33
I70
sS'q'
p34
I8
sS'p'
p35
I158
sS's'
p36
I199
sS'r'
p37
I429
sS'u'
p38
I23
sS't'
p39
I105
sS'w'
p40
I63
sS'v'
p41
I29
sS'y'
p42
I18
sS'x'
p43
I3
sS'z'
p44
I2
stp45
Rp46
tp47
a(g7
g3
(g4
g5
(dp48
g37
I9
sg35
I104
sg36
I4
sg43
I5
sg33
I3
sg18
I1
sg19
I2
sg2
I54
sg20
I15
sg23
I1665
sg24
I3
sg25
I3
sg27
I2
sg28
I4
sg29
I23
sg30
I4
sg31
I1
sg7
I22
sg8
I55
sg9
I2
sg10
I2
sg11
I21
sg12
I1
sg13
I1
sg15
I2
sg16
I1
sg17
I3
sg44
I54
sg39
I5
stp49
Rp50
tp51
a(g8
g3
(g4
g5
(dp52
g36
I1
sg41
I1
sg37
I2
sg18
I9
sg19
I2
sg2
I18
sg21
I3
sg22
I1
sg24
I1
sg25
I1
sg27
I1
sg31
I2
sg7
I95
sg8
I78
sg9
I128
sg10
I68
sg11
I74
sg12
I413
sg13
I94
sg14
I49
sg15
I94
sg16
I42
sg17
I49
stp53
Rp54
tp55
a(g9
g3
(g4
g5
(dp56
g16
I137
sg37
I1
sg18
I3
sg19
I1
sg2
I16
sg23
I1
sg24
I3
sg25
I1
sg30
I1
sg7
I91
sg8
I357
sg9
I118
sg10
I43
sg11
I65
sg12
I55
sg13
I49
sg14
I44
sg15
I42
sg42
I1
sg17
I43
sg44
I1
stp57
Rp58
tp59
a(g10
g3
(g4
g5
(dp60
g42
I1
sg18
I7
sg2
I14
sg23
I2
sg26
I1
sg27
I1
sg29
I1
sg30
I1
sg10
I43
sg7
I63
sg8
I49
sg9
I38
sg36
I2
sg11
I43
sg12
I35
sg13
I37
sg14
I37
sg15
I38
sg16
I52
sg17
I38
stp61
Rp62
tp63
a(g11
g3
(g4
g5
(dp64
g33
I1
sg18
I10
sg19
I1
sg2
I15
sg21
I1
sg22
I2
sg23
I1
sg28
I1
sg30
I1
sg31
I1
sg32
I2
sg7
I96
sg8
I45
sg9
I340
sg10
I49
sg11
I57
sg12
I48
sg13
I61
sg14
I45
sg15
I43
sg16
I39
sg17
I62
stp65
Rp66
tp67
a(g12
g3
(g4
g5
(dp68
g40
I1
sg41
I2
sg42
I1
sg37
I3
sg18
I19
sg19
I3
sg2
I103
sg23
I1
sg24
I2
sg25
I6
sg26
I1
sg28
I1
sg30
I1
sg7
I238
sg8
I44
sg9
I65
sg10
I40
sg11
I39
sg12
I40
sg13
I34
sg14
I50
sg15
I36
sg16
I35
sg17
I41
stp69
Rp70
tp71
a(g13
g3
(g4
g5
(dp72
g14
I38
sg18
I5
sg2
I18
sg20
I4
sg22
I1
sg9
I46
sg27
I1
sg7
I85
sg8
I50
sg35
I1
sg10
I40
sg11
I48
sg12
I36
sg13
I46
sg40
I1
sg15
I41
sg16
I31
sg17
I39
sg39
I1
stp73
Rp74
tp75
a(g14
g3
(g4
g5
(dp76
g18
I2
sg19
I1
sg2
I11
sg23
I1
sg10
I46
sg32
I1
sg7
I67
sg8
I44
sg9
I43
sg36
I2
sg11
I49
sg12
I41
sg13
I37
sg14
I39
sg15
I31
sg16
I27
sg17
I53
stp77
Rp78
tp79
a(g15
g3
(g4
g5
(dp80
g38
I1
sg18
I4
sg2
I19
sg24
I1
sg28
I1
sg29
I1
sg10
I46
sg7
I69
sg8
I38
sg9
I40
sg36
I1
sg11
I28
sg12
I44
sg13
I32
sg14
I41
sg15
I31
sg16
I37
sg17
I33
sg34
I1
sg39
I1
stp81
Rp82
tp83
a(g16
g3
(g4
g5
(dp84
g15
I38
sg17
I32
sg18
I3
sg2
I14
sg20
I1
sg21
I2
sg25
I42
sg26
I2
sg29
I1
sg7
I69
sg8
I54
sg9
I42
sg10
I31
sg11
I49
sg12
I27
sg13
I34
sg14
I55
sg41
I1
sg16
I44
sg43
I1
sg39
I4
stp85
Rp86
tp87
a(g17
g3
(g4
g5
(dp88
g37
I3
sg15
I31
sg7
I77
sg18
I5
sg19
I1
sg2
I12
sg23
I1
sg10
I43
sg33
I1
sg8
I37
sg9
I41
sg36
I1
sg11
I40
sg12
I46
sg13
I44
sg14
I31
sg41
I1
sg16
I30
sg17
I37
sg39
I2
stp89
Rp90
tp91
a(g18
g3
(g4
g5
(dp92
g2
I1
sg7
I3
sg8
I72
sg9
I53
sg10
I40
sg11
I77
sg12
I41
sg13
I42
sg14
I45
sg15
I32
sg16
I52
sg17
I41
sg18
I5
sg19
I16
sg20
I22
sg21
I1
sg22
I1
sg23
I14
sg25
I33
sg26
I3
sg27
I14
sg28
I5
sg29
I4
sg30
I4
sg31
I6
sg32
I5
sg33
I6
sg35
I273
sg36
I13
sg37
I45
sg38
I2
sg39
I9
sg40
I268
sg41
I4
stp93
Rp94
tp95
a(g19
g3
(g4
g5
(dp96
g2
I190
sg7
I36
sg8
I7
sg10
I2
sg11
I2
sg18
I23
sg19
I12
sg20
I108
sg21
I18
sg22
I10
sg23
I48
sg24
I84
sg25
I13
sg26
I65
sg27
I14
sg28
I43
sg29
I3
sg30
I158
sg31
I266
sg32
I2
sg33
I379
sg34
I3
sg35
I20
sg36
I166
sg37
I254
sg38
I49
sg39
I311
sg40
I18
sg41
I19
sg42
I343
sg43
I37
sg44
I6
stp97
Rp98
tp99
a(g20
g3
(g4
g5
(dp100
g2
I49
sg7
I27
sg8
I13
sg9
I14
sg10
I3
sg11
I3
sg12
I1
sg14
I1
sg16
I1
sg17
I1
sg18
I20
sg19
I148
sg20
I18
sg21
I3
sg22
I297
sg23
I4
sg24
I4
sg25
I1
sg26
I29
sg27
I145
sg28
I62
sg30
I4
sg31
I60
sg32
I168
sg34
I3
sg35
I3
sg36
I26
sg37
I41
sg38
I103
sg39
I138
sg41
I8
sg42
I22
sg43
I729
sg44
I1
stp101
Rp102
tp103
a(g21
g3
(g4
g5
(dp104
g40
I2
sg35
I2
sg33
I1
sg18
I1
sg19
I68
sg2
I23
sg20
I3
sg21
I4
sg22
I59
sg23
I3
sg25
I1
sg26
I33
sg27
I3
sg29
I1
sg30
I4
sg31
I16
sg32
I32
sg7
I8
sg8
I1
sg9
I2
sg36
I6
sg37
I31
sg12
I1
sg13
I1
sg14
I1
sg41
I1
sg42
I7
sg38
I15
sg34
I1
sg39
I4
stp105
Rp106
tp107
a(g22
g3
(g4
g5
(dp108
g2
I545
sg7
I272
sg8
I10
sg9
I4
sg10
I1
sg11
I11
sg12
I6
sg13
I3
sg14
I1
sg15
I1
sg16
I2
sg17
I3
sg18
I411
sg19
I175
sg20
I101
sg21
I24
sg22
I86
sg23
I200
sg24
I36
sg25
I38
sg26
I20
sg27
I3
sg28
I8
sg29
I2
sg30
I119
sg31
I149
sg32
I5
sg33
I771
sg34
I27
sg35
I52
sg36
I595
sg37
I455
sg38
I5
sg39
I225
sg40
I68
sg41
I62
sg42
I52
sg43
I40
sg44
I8
stp109
Rp110
tp111
a(g23
g3
(g4
g5
(dp112
g35
I7
sg43
I2
sg33
I3
sg18
I8
sg19
I158
sg2
I217
sg20
I3
sg21
I5
sg22
I442
sg23
I15
sg24
I5
sg25
I95
sg26
I81
sg27
I4
sg29
I1
sg30
I10
sg31
I30
sg32
I1932
sg7
I42
sg8
I1
sg9
I1
sg36
I33
sg37
I59
sg12
I1
sg13
I1
sg40
I269
sg41
I10
sg42
I16
sg38
I22
sg44
I1
sg39
I4
stp113
Rp114
tp115
a(g24
g3
(g4
g5
(dp116
g37
I80
sg36
I8
sg41
I2
sg33
I41
sg18
I5
sg19
I31
sg2
I79
sg20
I22
sg21
I1
sg22
I88
sg23
I14
sg24
I7
sg25
I9
sg26
I34
sg27
I13
sg30
I5
sg31
I5
sg32
I23
sg7
I12
sg35
I4
sg10
I2
sg11
I1
sg12
I1
sg39
I1
sg40
I1
sg15
I2
sg42
I1
sg38
I17
stp117
Rp118
tp119
a(g25
g3
(g4
g5
(dp120
g37
I21
sg35
I1
sg41
I1
sg33
I2
sg18
I1
sg19
I75
sg2
I63
sg20
I4
sg21
I2
sg22
I43
sg23
I2
sg25
I28
sg26
I134
sg30
I1
sg31
I36
sg32
I125
sg7
I11
sg8
I5
sg9
I6
sg36
I10
sg11
I1
sg38
I9
sg34
I2
sg14
I3
sg15
I2
sg42
I4
sg44
I2
sg39
I16
stp121
Rp122
tp123
a(g26
g3
(g4
g5
(dp124
g33
I507
sg18
I2
sg19
I60
sg2
I28
sg20
I296
sg21
I12
sg22
I84
sg23
I311
sg24
I57
sg25
I28
sg26
I4
sg27
I2
sg28
I8
sg29
I4
sg30
I32
sg31
I419
sg32
I177
sg7
I4
sg8
I1
sg35
I81
sg36
I171
sg37
I46
sg38
I3
sg34
I4
sg40
I1
sg41
I24
sg42
I1
sg43
I3
sg44
I22
sg39
I110
stp125
Rp126
tp127
a(g27
g3
(g4
g5
(dp128
g37
I15
sg36
I5
sg33
I10
sg18
I2
sg19
I96
sg2
I54
sg20
I2
sg21
I1
sg22
I169
sg23
I5
sg26
I60
sg27
I1
sg28
I2
sg29
I1
sg30
I25
sg31
I13
sg32
I69
sg7
I14
sg9
I1
sg10
I2
sg11
I1
sg38
I45
sg39
I25
sg40
I10
sg41
I4
sg42
I14
sg43
I1
stp129
Rp130
tp131
a(g28
g3
(g4
g5
(dp132
g37
I10
sg33
I3
sg18
I1
sg19
I42
sg2
I37
sg21
I3
sg22
I78
sg23
I3
sg24
I5
sg25
I4
sg26
I28
sg27
I2
sg29
I1
sg30
I2
sg31
I8
sg32
I9
sg7
I6
sg8
I1
sg35
I1
sg36
I18
sg11
I2
sg38
I4
sg39
I2
sg41
I2
sg42
I3
stp133
Rp134
tp135
a(g29
g3
(g4
g5
(dp136
g11
I1
sg19
I29
sg2
I5
sg20
I4
sg21
I1
sg22
I15
sg35
I22
sg26
I1
sg27
I2
sg28
I1
sg30
I2
sg32
I27
sg7
I4
sg34
I3
sg9
I1
sg37
I2
sg38
I10
stp137
Rp138
tp139
a(g30
g3
(g4
g5
(dp140
g37
I1
sg18
I8
sg19
I136
sg2
I61
sg20
I9
sg21
I33
sg22
I1015
sg24
I10
sg25
I3
sg26
I84
sg27
I2
sg28
I4
sg30
I24
sg31
I3
sg32
I55
sg7
I44
sg8
I5
sg35
I64
sg36
I17
sg11
I1
sg38
I3
sg39
I6
sg42
I18
stp141
Rp142
tp143
a(g31
g3
(g4
g5
(dp144
g35
I5
sg36
I43
sg42
I51
sg33
I2
sg18
I27
sg19
I155
sg2
I146
sg20
I24
sg21
I4
sg22
I378
sg23
I283
sg24
I2
sg25
I9
sg26
I141
sg27
I1
sg28
I7
sg30
I6
sg31
I102
sg32
I325
sg7
I50
sg8
I1
sg9
I1
sg10
I1
sg37
I1
sg38
I39
sg39
I23
sg14
I1
sg41
I2
sg16
I1
sg43
I1
sg44
I1
stp145
Rp146
tp147
a(g32
g3
(g4
g5
(dp148
g2
I57
sg7
I12
sg8
I1
sg9
I1
sg11
I1
sg12
I1
sg15
I1
sg18
I271
sg19
I15
sg20
I1939
sg21
I31
sg22
I8
sg23
I19
sg24
I19
sg25
I75
sg26
I182
sg27
I10
sg28
I7
sg30
I87
sg31
I59
sg32
I27
sg33
I388
sg34
I1
sg35
I45
sg36
I54
sg37
I566
sg38
I79
sg39
I57
sg40
I33
sg41
I37
sg42
I16
sg43
I9
sg44
I2
stp149
Rp150
tp151
a(g33
g3
(g4
g5
(dp152
g37
I7
sg33
I73
sg18
I19
sg19
I200
sg2
I300
sg20
I61
sg21
I2
sg22
I218
sg23
I200
sg24
I135
sg25
I25
sg26
I61
sg27
I2
sg28
I6
sg29
I2
sg30
I9
sg31
I8
sg32
I55
sg7
I68
sg8
I4
sg35
I6
sg36
I72
sg11
I1
sg38
I11
sg34
I3
sg41
I189
sg42
I11
sg43
I1
sg44
I5
sg39
I637
stp153
Rp154
tp155
a(g34
g3
(g4
g5
(dp156
g19
I2
sg23
I3
sg25
I1
sg27
I1
sg29
I1
sg7
I3
sg8
I1
sg10
I1
sg38
I52
sg13
I1
sg43
I1
stp157
Rp158
tp159
a(g35
g3
(g4
g5
(dp160
g37
I85
sg35
I16
sg36
I15
sg42
I17
sg33
I15
sg18
I6
sg19
I345
sg2
I45
sg20
I4
sg21
I1
sg22
I56
sg23
I131
sg24
I22
sg25
I2
sg26
I276
sg27
I26
sg30
I7
sg31
I45
sg32
I41
sg7
I13
sg8
I4
sg9
I1
sg10
I3
sg11
I5
sg38
I19
sg13
I2
sg40
I4
sg16
I2
sg43
I1
sg39
I48
stp161
Rp162
tp163
a(g36
g3
(g4
g5
(dp164
g2
I203
sg7
I109
sg8
I1
sg9
I5
sg11
I3
sg16
I2
sg17
I3
sg18
I29
sg19
I97
sg20
I54
sg21
I5
sg22
I164
sg23
I6
sg25
I12
sg26
I81
sg27
I74
sg28
I19
sg29
I1
sg30
I21
sg31
I8
sg32
I81
sg33
I2
sg35
I304
sg36
I101
sg37
I14
sg38
I464
sg39
I215
sg40
I6
sg41
I2
sg42
I8
sg43
I5
sg44
I1
stp165
Rp166
tp167
a(g37
g3
(g4
g5
(dp168
g2
I310
sg7
I109
sg8
I4
sg11
I2
sg12
I1
sg13
I1
sg14
I2
sg17
I1
sg18
I15
sg19
I213
sg20
I41
sg21
I5
sg22
I812
sg23
I68
sg24
I9
sg25
I2
sg26
I162
sg27
I4
sg28
I22
sg30
I46
sg31
I286
sg32
I138
sg33
I15
sg35
I13
sg36
I66
sg37
I51
sg38
I20
sg39
I114
sg40
I4
sg41
I23
sg42
I51
sg44
I1
stp169
Rp170
tp171
a(g38
g3
(g4
g5
(dp172
g42
I1
sg43
I4
sg33
I68
sg19
I7
sg2
I6
sg20
I24
sg21
I24
sg22
I56
sg23
I14
sg24
I13
sg25
I1
sg26
I19
sg28
I2
sg30
I538
sg31
I35
sg32
I3
sg7
I4
sg35
I38
sg36
I38
sg37
I109
sg12
I1
sg39
I41
sg40
I2
sg16
I1
sg17
I1
sg44
I3
stp173
Rp174
tp175
a(g39
g3
(g4
g5
(dp176
g37
I115
sg35
I20
sg43
I10
sg33
I15
sg38
I27
sg18
I284
sg19
I206
sg2
I328
sg20
I6
sg22
I350
sg23
I4
sg24
I1
sg25
I5
sg26
I279
sg27
I133
sg30
I19
sg31
I64
sg32
I136
sg7
I76
sg8
I3
sg9
I1
sg36
I43
sg11
I1
sg12
I1
sg39
I170
sg40
I3
sg42
I18
sg17
I1
sg44
I8
stp177
Rp178
tp179
a(g40
g3
(g4
g5
(dp180
g42
I2
sg33
I12
sg18
I1
sg19
I33
sg2
I56
sg20
I3
sg21
I1
sg22
I42
sg23
I2
sg24
I1
sg25
I2
sg26
I293
sg27
I12
sg28
I1
sg30
I2
sg31
I1
sg32
I280
sg7
I11
sg8
I1
sg35
I1
sg36
I6
sg37
I3
sg13
I2
sg15
I1
sg16
I1
sg17
I1
sg44
I1
sg39
I2
stp181
Rp182
tp183
a(g41
g3
(g4
g5
(dp184
g42
I1
sg33
I1
sg18
I5
sg19
I30
sg2
I16
sg20
I1
sg21
I2
sg22
I83
sg23
I1
sg26
I102
sg27
I1
sg28
I2
sg30
I2
sg36
I5
sg32
I175
sg7
I5
sg8
I8
sg35
I2
sg10
I1
sg11
I5
sg12
I1
sg13
I2
sg14
I2
sg16
I3
sg38
I1
sg44
I1
sg34
I1
stp185
Rp186
tp187
a(g42
g3
(g4
g5
(dp188
g37
I4
sg35
I1
sg33
I13
sg18
I21
sg19
I18
sg2
I165
sg20
I3
sg21
I7
sg22
I34
sg23
I1
sg24
I8
sg25
I2
sg26
I2
sg28
I1
sg29
I1
sg30
I278
sg31
I10
sg32
I25
sg7
I40
sg8
I3
sg9
I3
sg36
I12
sg11
I4
sg39
I3
sg14
I1
sg41
I1
sg17
I1
sg44
I1
stp189
Rp190
tp191
a(g43
g3
(g4
g5
(dp192
g35
I6
sg43
I1
sg37
I4
sg18
I34
sg19
I9
sg2
I21
sg20
I1
sg22
I27
sg25
I9
sg26
I7
sg27
I4
sg28
I1
sg30
I1
sg31
I10
sg7
I16
sg8
I3
sg9
I42
sg11
I1
sg13
I1
sg14
I1
sg41
I1
sg16
I2
sg17
I2
sg34
I1
sg39
I11
stp193
Rp194
tp195
a(g44
g3
(g4
g5
(dp196
g7
I4
sg18
I3
sg19
I18
sg2
I7
sg22
I14
sg26
I59
sg28
I1
sg30
I1
sg32
I4
sg33
I1
sg8
I1
sg35
I2
sg37
I1
sg38
I2
sg34
I1
sg40
I1
sg41
I1
sg42
I1
sg44
I3
stp197
Rp198
tp199
aaS'\n\t\r~@#%^&*"\'/\\-+<>{}|$!:()[];?,='
p200
aI01
a.